target datalayout = "e-m:e-p270:32:32-p271:32:32-p272:64:64-i64:64-i128:128-f80:128-n8:16:32:64-S128"
target triple = "x86_64-pc-linux-gnu"

%struct.archive_entry = type { ptr, ptr, i32, %struct.aest, i32, %struct.archive_mstring, i64, i64, %struct.archive_mstring, %struct.archive_mstring, %struct.archive_mstring, %struct.archive_mstring, %struct.archive_mstring, i8, ptr, i64, %struct.ae_digest, %struct.archive_acl, ptr, ptr, ptr, ptr, ptr, [12 x i8], i32 }
%struct.aest = type { i64, i32, i64, i32, i64, i32, i64, i32, i64, i64, i32, i64, i64, i32, i64, i64, i64, i32, i64, i64, i64 }
%struct.archive_mstring = type { %struct.archive_string, %struct.archive_string, %struct.archive_wstring, %struct.archive_string, i32 }
%struct.archive_wstring = type { ptr, i64, i64 }
%struct.archive_string = type { ptr, i64, i64 }
%struct.ae_digest = type { [16 x i8], [20 x i8], [20 x i8], [32 x i8], [48 x i8], [64 x i8] }
%struct.archive_acl = type { i32, ptr, ptr, i32, ptr, ptr, i32 }

@.str = private unnamed_addr constant [10 x i8] c"No memory\00", align 1

; Function Attrs: nounwind uwtable
define dso_local i32 @archive_entry_update_symlink_utf8(ptr noundef %0, ptr noundef %1) #0 {
  %3 = alloca i32, align 4
  %4 = alloca ptr, align 8
  %5 = alloca ptr, align 8
  store ptr %0, ptr %4, align 8, !tbaa !4
  store ptr %1, ptr %5, align 8, !tbaa !67
  %6 = load ptr, ptr %5, align 8, !tbaa !67
  %7 = icmp eq ptr %6, null
  br i1 %7, label %8, label %15

8:                                                ; preds = %2
  %9 = load ptr, ptr %4, align 8, !tbaa !4
  %10 = getelementptr inbounds nuw %struct.archive_entry, ptr %9, i32 0, i32 4
  %11 = load i32, ptr %10, align 8, !tbaa !35
  %12 = and i32 %11, 1
  %13 = icmp ne i32 %12, 0
  br i1 %13, label %14, label %15

14:                                               ; preds = %8
  store i32 0, ptr %3, align 4
  br label %48

15:                                               ; preds = %8, %2
  %16 = load ptr, ptr %4, align 8, !tbaa !4
  %17 = getelementptr inbounds nuw %struct.archive_entry, ptr %16, i32 0, i32 4
  %18 = load i32, ptr %17, align 8, !tbaa !35
  %19 = and i32 %18, -2
  store i32 %19, ptr %17, align 8, !tbaa !35
  %20 = load ptr, ptr %5, align 8, !tbaa !67
  %21 = icmp eq ptr %20, null
  br i1 %21, label %22, label %27

22:                                               ; preds = %15
  %23 = load ptr, ptr %4, align 8, !tbaa !4
  %24 = getelementptr inbounds nuw %struct.archive_entry, ptr %23, i32 0, i32 4
  %25 = load i32, ptr %24, align 8, !tbaa !35
  %26 = and i32 %25, -3
  store i32 %26, ptr %24, align 8, !tbaa !35
  br label %32

27:                                               ; preds = %15
  %28 = load ptr, ptr %4, align 8, !tbaa !4
  %29 = getelementptr inbounds nuw %struct.archive_entry, ptr %28, i32 0, i32 4
  %30 = load i32, ptr %29, align 8, !tbaa !35
  %31 = or i32 %30, 2
  store i32 %31, ptr %29, align 8, !tbaa !35
  br label %32

32:                                               ; preds = %27, %22
  %33 = load ptr, ptr %4, align 8, !tbaa !4
  %34 = getelementptr inbounds nuw %struct.archive_entry, ptr %33, i32 0, i32 0
  %35 = load ptr, ptr %34, align 8, !tbaa !30
  %36 = load ptr, ptr %4, align 8, !tbaa !4
  %37 = getelementptr inbounds nuw %struct.archive_entry, ptr %36, i32 0, i32 9
  %38 = load ptr, ptr %5, align 8, !tbaa !67
  %39 = call i32 @archive_mstring_update_utf8(ptr noundef %35, ptr noundef %37, ptr noundef %38)
  %40 = icmp eq i32 %39, 0
  br i1 %40, label %41, label %42

41:                                               ; preds = %32
  store i32 1, ptr %3, align 4
  br label %48

42:                                               ; preds = %32
  %43 = call ptr @__errno_location() #17
  %44 = load i32, ptr %43, align 4, !tbaa !32
  %45 = icmp eq i32 %44, 12
  br i1 %45, label %46, label %47

46:                                               ; preds = %42
  call void @__archive_errx(i32 noundef 1, ptr noundef @.str) #18
  unreachable

47:                                               ; preds = %42
  store i32 0, ptr %3, align 4
  br label %48

48:                                               ; preds = %47, %41, %14
  %49 = load i32, ptr %3, align 4
  ret i32 %49
}