; Function Attrs: nounwind uwtable
define dso_local range(i32 0, 2) i32 @archive_entry_update_symlink_utf8(ptr noundef %0, ptr noundef %1) local_unnamed_addr #0 {
  %3 = icmp ne ptr %1, null
  %4 = getelementptr inbounds nuw i8, ptr %0, i64 192
  %5 = load i32, ptr %4, align 8, !tbaa !31
  %6 = and i32 %5, 1
  %.not = icmp eq i32 %6, 0
  %or.cond = select i1 %3, i1 true, i1 %.not
  br i1 %or.cond, label %._crit_edge, label %19

._crit_edge:                                      ; preds = %2
  %7 = getelementptr inbounds nuw i8, ptr %0, i64 192
  %8 = and i32 %5, -4
  %9 = or disjoint i32 %8, 2
  %storemerge = select i1 %3, i32 %9, i32 %8
  store i32 %storemerge, ptr %7, align 8, !tbaa !31
  %10 = load ptr, ptr %0, align 8, !tbaa !25
  %11 = getelementptr inbounds nuw i8, ptr %0, i64 424
  %12 = tail call i32 @archive_mstring_update_utf8(ptr noundef %10, ptr noundef nonnull %11, ptr noundef %1) #21
  %13 = icmp eq i32 %12, 0
  br i1 %13, label %19, label %14

14:                                               ; preds = %._crit_edge
  %15 = tail call ptr @__errno_location() #25
  %16 = load i32, ptr %15, align 4, !tbaa !28
  %17 = icmp eq i32 %16, 12
  br i1 %17, label %18, label %19

18:                                               ; preds = %14
  tail call void @__archive_errx(i32 noundef 1, ptr noundef nonnull @.str) #23
  unreachable

19:                                               ; preds = %2, %14, %._crit_edge
  %.0 = phi i32 [ 1, %._crit_edge ], [ 0, %14 ], [ 0, %2 ]
  ret i32 %.0
}